target datalayout = "e-m:e-p270:32:32-p271:32:32-p272:64:64-i64:64-i128:128-f80:128-n8:16:32:64-S128"
target triple = "x86_64-pc-linux-gnu"

%struct.expert_field = type { i32, i32 }

@hf_nan_map_id = internal global i32 0, align 4
@hf_nan_attr_device_cap_committed_dw = internal global i32 0, align 4
@hf_nan_attr_device_cap_supported_bands = internal global i32 0, align 4
@hf_nan_attr_device_cap_op_mode = internal global i32 0, align 4
@hf_nan_attr_device_cap_antennas = internal global i32 0, align 4
@hf_nan_attr_device_cap_max_channel_switch_time = internal global i32 0, align 4
@hf_nan_attr_device_cap_capabilities = internal global i32 0, align 4
@ett_device_cap_map_id = internal global i32 0, align 4
@ett_device_cap_committed_dw = internal global i32 0, align 4
@ett_device_cap_supported_bands = internal global i32 0, align 4
@ett_device_cap_op_mode = internal global i32 0, align 4
@ett_device_cap_antennas = internal global i32 0, align 4
@ett_device_cap_capabilities = internal global i32 0, align 4
@ei_nan_elem_len_invalid = internal global %struct.expert_field zeroinitializer, align 4
@dissect_attr_device_capability.device_cap_map_id_fields = internal constant [3 x ptr] [ptr @hf_nan_attr_device_cap_map_id_apply_to, ptr @hf_nan_attr_device_cap_map_id_associated_maps, ptr null], align 16
@dissect_attr_device_capability.device_cap_antennas_fields = internal constant [3 x ptr] [ptr @hf_nan_attr_device_cap_antennas_tx, ptr @hf_nan_attr_device_cap_antennas_rx, ptr null], align 16

; Function Attrs: null_pointer_is_valid sspstrong uwtable
define internal void @dissect_attr_device_capability(ptr noundef %0, ptr noundef %1, i32 noundef %2, i16 noundef zeroext %3, ptr noundef %4) #0 {
  %6 = alloca ptr, align 8
  %7 = alloca ptr, align 8
  %8 = alloca i32, align 4
  %9 = alloca i16, align 2
  %10 = alloca ptr, align 8
  store ptr %0, ptr %6, align 8
  store ptr %1, ptr %7, align 8
  store i32 %2, ptr %8, align 4
  store i16 %3, ptr %9, align 2
  store ptr %4, ptr %10, align 8
  %11 = load i16, ptr %9, align 2
  %12 = zext i16 %11 to i32
  %13 = icmp ne i32 %12, 9
  br i1 %13, label %14, label %18

14:                                               ; preds = %5
  %15 = load ptr, ptr %10, align 8
  %16 = load ptr, ptr %6, align 8
  %17 = call ptr @expert_add_info(ptr noundef %15, ptr noundef %16, ptr noundef @ei_nan_elem_len_invalid)
  br label %67

18:                                               ; preds = %5
  %19 = load ptr, ptr %6, align 8
  %20 = load ptr, ptr %7, align 8
  %21 = load i32, ptr %8, align 4
  %22 = add i32 %21, 3
  %23 = load i32, ptr @hf_nan_map_id, align 4
  %24 = load i32, ptr @ett_device_cap_map_id, align 4
  %25 = call ptr @proto_tree_add_bitmask(ptr noundef %19, ptr noundef %20, i32 noundef %22, i32 noundef %23, i32 noundef %24, ptr noundef @dissect_attr_device_capability.device_cap_map_id_fields, i32 noundef -2147483648)
  %26 = load ptr, ptr %6, align 8
  %27 = load ptr, ptr %7, align 8
  %28 = load i32, ptr %8, align 4
  %29 = add i32 %28, 4
  %30 = load i32, ptr @hf_nan_attr_device_cap_committed_dw, align 4
  %31 = load i32, ptr @ett_device_cap_committed_dw, align 4
  %32 = call ptr @proto_tree_add_bitmask(ptr noundef %26, ptr noundef %27, i32 noundef %29, i32 noundef %30, i32 noundef %31, ptr noundef @dissect_attr_device_capability.device_cap_committed_dw_fields, i32 noundef -2147483648)
  %33 = load ptr, ptr %6, align 8
  %34 = load ptr, ptr %7, align 8
  %35 = load i32, ptr %8, align 4
  %36 = add i32 %35, 6
  %37 = load i32, ptr @hf_nan_attr_device_cap_supported_bands, align 4
  %38 = load i32, ptr @ett_device_cap_supported_bands, align 4
  %39 = call ptr @proto_tree_add_bitmask(ptr noundef %33, ptr noundef %34, i32 noundef %36, i32 noundef %37, i32 noundef %38, ptr noundef @dissect_attr_device_capability.device_cap_supported_bands_fields, i32 noundef -2147483648)
  %40 = load ptr, ptr %6, align 8
  %41 = load ptr, ptr %7, align 8
  %42 = load i32, ptr %8, align 4
  %43 = add i32 %42, 7
  %44 = load i32, ptr @hf_nan_attr_device_cap_op_mode, align 4
  %45 = load i32, ptr @ett_device_cap_op_mode, align 4
  %46 = call ptr @proto_tree_add_bitmask(ptr noundef %40, ptr noundef %41, i32 noundef %43, i32 noundef %44, i32 noundef %45, ptr noundef @dissect_attr_device_capability.device_cap_op_mode_fields, i32 noundef -2147483648)
  %47 = load ptr, ptr %6, align 8
  %48 = load ptr, ptr %7, align 8
  %49 = load i32, ptr %8, align 4
  %50 = add i32 %49, 8
  %51 = load i32, ptr @hf_nan_attr_device_cap_antennas, align 4
  %52 = load i32, ptr @ett_device_cap_antennas, align 4
  %53 = call ptr @proto_tree_add_bitmask(ptr noundef %47, ptr noundef %48, i32 noundef %50, i32 noundef %51, i32 noundef %52, ptr noundef @dissect_attr_device_capability.device_cap_antennas_fields, i32 noundef -2147483648)
  %54 = load ptr, ptr %6, align 8
  %55 = load i32, ptr @hf_nan_attr_device_cap_max_channel_switch_time, align 4
  %56 = load ptr, ptr %7, align 8
  %57 = load i32, ptr %8, align 4
  %58 = add i32 %57, 9
  %59 = call ptr @proto_tree_add_item(ptr noundef %54, i32 noundef %55, ptr noundef %56, i32 noundef %58, i32 noundef 2, i32 noundef -2147483648)
  %60 = load ptr, ptr %6, align 8
  %61 = load ptr, ptr %7, align 8
  %62 = load i32, ptr %8, align 4
  %63 = add i32 %62, 11
  %64 = load i32, ptr @hf_nan_attr_device_cap_capabilities, align 4
  %65 = load i32, ptr @ett_device_cap_capabilities, align 4
  %66 = call ptr @proto_tree_add_bitmask(ptr noundef %60, ptr noundef %61, i32 noundef %63, i32 noundef %64, i32 noundef %65, ptr noundef @dissect_attr_device_capability.device_cap_capabilities_fields, i32 noundef -2147483648)
  br label %67

67:                                               ; preds = %18, %14
  ret void
}