; Function Attrs: null_pointer_is_valid sspstrong uwtable
define internal fastcc void @dissect_attr_device_capability(ptr noundef %0, ptr noundef %1, i32 noundef %2, i16 noundef zeroext %3, ptr noundef %4) unnamed_addr #0 {
  %.not = icmp eq i16 %3, 9
  br i1 %.not, label %8, label %6

6:                                                ; preds = %5
  %7 = tail call ptr @expert_add_info(ptr noundef %4, ptr noundef %0, ptr noundef nonnull @ei_nan_elem_len_invalid)
  br label %36

8:                                                ; preds = %5
  %9 = add i32 %2, 3
  %10 = load i32, ptr @hf_nan_map_id, align 4
  %11 = load i32, ptr @ett_device_cap_map_id, align 4
  %12 = tail call ptr @proto_tree_add_bitmask(ptr noundef %0, ptr noundef %1, i32 noundef %9, i32 noundef %10, i32 noundef %11, ptr noundef nonnull @dissect_attr_device_capability.device_cap_map_id_fields, i32 noundef -2147483648)
  %13 = add i32 %2, 4
  %14 = load i32, ptr @hf_nan_attr_device_cap_committed_dw, align 4
  %15 = load i32, ptr @ett_device_cap_committed_dw, align 4
  %16 = tail call ptr @proto_tree_add_bitmask(ptr noundef %0, ptr noundef %1, i32 noundef %13, i32 noundef %14, i32 noundef %15, ptr noundef nonnull @dissect_attr_device_capability.device_cap_committed_dw_fields, i32 noundef -2147483648)
  %17 = add i32 %2, 6
  %18 = load i32, ptr @hf_nan_attr_device_cap_supported_bands, align 4
  %19 = load i32, ptr @ett_device_cap_supported_bands, align 4
  %20 = tail call ptr @proto_tree_add_bitmask(ptr noundef %0, ptr noundef %1, i32 noundef %17, i32 noundef %18, i32 noundef %19, ptr noundef nonnull @dissect_attr_device_capability.device_cap_supported_bands_fields, i32 noundef -2147483648)
  %21 = add i32 %2, 7
  %22 = load i32, ptr @hf_nan_attr_device_cap_op_mode, align 4
  %23 = load i32, ptr @ett_device_cap_op_mode, align 4
  %24 = tail call ptr @proto_tree_add_bitmask(ptr noundef %0, ptr noundef %1, i32 noundef %21, i32 noundef %22, i32 noundef %23, ptr noundef nonnull @dissect_attr_device_capability.device_cap_op_mode_fields, i32 noundef -2147483648)
  %25 = add i32 %2, 8
  %26 = load i32, ptr @hf_nan_attr_device_cap_antennas, align 4
  %27 = load i32, ptr @ett_device_cap_antennas, align 4
  %28 = tail call ptr @proto_tree_add_bitmask(ptr noundef %0, ptr noundef %1, i32 noundef %25, i32 noundef %26, i32 noundef %27, ptr noundef nonnull @dissect_attr_device_capability.device_cap_antennas_fields, i32 noundef -2147483648)
  %29 = load i32, ptr @hf_nan_attr_device_cap_max_channel_switch_time, align 4
  %30 = add i32 %2, 9
  %31 = tail call ptr @proto_tree_add_item(ptr noundef %0, i32 noundef %29, ptr noundef %1, i32 noundef %30, i32 noundef 2, i32 noundef -2147483648)
  %32 = add i32 %2, 11
  %33 = load i32, ptr @hf_nan_attr_device_cap_capabilities, align 4
  %34 = load i32, ptr @ett_device_cap_capabilities, align 4
  %35 = tail call ptr @proto_tree_add_bitmask(ptr noundef %0, ptr noundef %1, i32 noundef %32, i32 noundef %33, i32 noundef %34, ptr noundef nonnull @dissect_attr_device_capability.device_cap_capabilities_fields, i32 noundef -2147483648)
  br label %36

36:                                               ; preds = %8, %6
  ret void
}